; Function Attrs: mustprogress uwtable
define dso_local void @_ZN4Luau7CodeGen3A6418AssemblyBuilderA641bENS1_12ConditionA64ERNS0_5LabelE(ptr noundef nonnull align 8 dereferenceable(176) %0, i32 noundef %1, ptr noundef nonnull align 4 captures(none) dereferenceable(8) %2) local_unnamed_addr #0 align 2 {
  %4 = sext i32 %1 to i64
  %5 = getelementptr inbounds [15 x ptr], ptr @_ZN4Luau7CodeGen3A64L16textForConditionE, i64 0, i64 %4
  %6 = load ptr, ptr %5, align 8, !tbaa !49
  %7 = getelementptr inbounds [15 x i8], ptr @_ZN4Luau7CodeGen3A64L16codeForConditionE, i64 0, i64 %4
  %8 = load i8, ptr %7, align 1, !tbaa !13
  %9 = zext i8 %8 to i32
  %10 = or disjoint i32 %9, 1409286144
  %11 = getelementptr inbounds nuw i8, ptr %0, i64 160
  %12 = load ptr, ptr %11, align 8, !tbaa !39
  %13 = getelementptr inbounds nuw i8, ptr %12, i64 4
  store ptr %13, ptr %11, align 8, !tbaa !39
  store i32 %10, ptr %12, align 4, !tbaa !48
  %14 = getelementptr inbounds nuw i8, ptr %0, i64 168
  %15 = load ptr, ptr %14, align 8, !tbaa !40
  %16 = icmp eq ptr %15, %13
  br i1 %16, label %17, label %_ZN4Luau7CodeGen3A6418AssemblyBuilderA646commitEv.exit.i

17:                                               ; preds = %3
  tail call void @_ZN4Luau7CodeGen3A6418AssemblyBuilderA646extendEv(ptr noundef nonnull align 8 dereferenceable(176) %0)
  br label %_ZN4Luau7CodeGen3A6418AssemblyBuilderA646commitEv.exit.i

_ZN4Luau7CodeGen3A6418AssemblyBuilderA646commitEv.exit.i: ; preds = %17, %3
  tail call void @_ZN4Luau7CodeGen3A6418AssemblyBuilderA6410patchLabelERNS0_5LabelENS2_5Patch4KindE(ptr noundef nonnull align 8 dereferenceable(176) %0, ptr noundef nonnull align 4 dereferenceable(8) %2, i32 noundef 1)
  %18 = getelementptr inbounds nuw i8, ptr %0, i64 80
  %19 = load i8, ptr %18, align 8, !tbaa !14, !range !46, !noundef !47
  %20 = trunc nuw i8 %19 to i1
  br i1 %20, label %21, label %_ZN4Luau7CodeGen3A6418AssemblyBuilderA647placeBCEPKcRNS0_5LabelEhh.exit

21:                                               ; preds = %_ZN4Luau7CodeGen3A6418AssemblyBuilderA646commitEv.exit.i
  %.sroa.0.0.copyload.i = load i64, ptr %2, align 4
  tail call void @_ZN4Luau7CodeGen3A6418AssemblyBuilderA643logEPKcNS0_5LabelE(ptr noundef nonnull align 8 dereferenceable(176) %0, ptr noundef %6, i64 %.sroa.0.0.copyload.i)
  br label %_ZN4Luau7CodeGen3A6418AssemblyBuilderA647placeBCEPKcRNS0_5LabelEhh.exit

_ZN4Luau7CodeGen3A6418AssemblyBuilderA647placeBCEPKcRNS0_5LabelEhh.exit: ; preds = %_ZN4Luau7CodeGen3A6418AssemblyBuilderA646commitEv.exit.i, %21
  ret void
}